target datalayout = "e-m:e-p270:32:32-p271:32:32-p272:64:64-i64:64-i128:128-f80:128-n8:16:32:64-S128"
target triple = "x86_64-pc-linux-gnu"

%struct.archive_read_filter_vtable = type { ptr, ptr, ptr }
%struct.archive_read_filter = type { i64, ptr, ptr, ptr, ptr, ptr, ptr, i32, i32, i32, ptr, i64, ptr, i64, ptr, i64, ptr, i64, i8, i8, i8 }
%struct.archive_read = type { %struct.archive, ptr, i32, i64, i64, %struct.archive_read_client, [16 x %struct.archive_read_filter_bidder], ptr, i32, i64, i32, i32, [16 x %struct.archive_format_descriptor], ptr, ptr, ptr, %struct.anon }
%struct.archive = type { i32, i32, ptr, i32, ptr, i32, i32, ptr, %struct.archive_string, ptr, i32, i32, ptr, ptr, i64, i64, i64, i8, i64 }
%struct.archive_string = type { ptr, i64, i64 }
%struct.archive_read_client = type { ptr, ptr, ptr, ptr, ptr, ptr, i32, i32, i64, ptr }
%struct.archive_read_filter_bidder = type { ptr, ptr, ptr }
%struct.archive_format_descriptor = type { ptr, ptr, ptr, ptr, ptr, ptr, ptr, ptr, ptr, ptr, ptr }
%struct.anon = type { ptr, ptr, i32, ptr, ptr }
%struct.private_data = type { ptr, i64, i64, i32, i32, i64, i64, ptr, i32, i32, i32, i32, i32, i32, i32, i32, i32, [65536 x i8], [65536 x i16], ptr, [65300 x i8] }

@.str = private unnamed_addr constant [14 x i8] c"compress (.Z)\00", align 1
@.str.1 = private unnamed_addr constant [41 x i8] c"Can't allocate data for %s decompression\00", align 1
@compress_reader_vtable = internal constant %struct.archive_read_filter_vtable { ptr @compress_filter_read, ptr @compress_filter_close, ptr null }, align 8
@.str.2 = private unnamed_addr constant [24 x i8] c"Invalid compressed data\00", align 1

; Function Attrs: nounwind uwtable
define internal i32 @compress_bidder_init(ptr noundef %0) #0 {
  %2 = alloca i32, align 4
  %3 = alloca ptr, align 8
  %4 = alloca ptr, align 8
  %5 = alloca ptr, align 8
  %6 = alloca i32, align 4
  store ptr %0, ptr %3, align 8
  %7 = load ptr, ptr %3, align 8
  %8 = getelementptr inbounds %struct.archive_read_filter, ptr %7, i32 0, i32 7
  store i32 3, ptr %8, align 8
  %9 = load ptr, ptr %3, align 8
  %10 = getelementptr inbounds %struct.archive_read_filter, ptr %9, i32 0, i32 6
  store ptr @.str, ptr %10, align 8
  %11 = call noalias ptr @calloc(i64 noundef 262016, i64 noundef 1) #5
  store ptr %11, ptr %4, align 8
  %12 = call noalias ptr @malloc(i64 noundef 65536) #6
  store ptr %12, ptr %5, align 8
  %13 = load ptr, ptr %4, align 8
  %14 = icmp eq ptr %13, null
  br i1 %14, label %18, label %15

15:                                               ; preds = %1
  %16 = load ptr, ptr %5, align 8
  %17 = icmp eq ptr %16, null
  br i1 %17, label %18, label %28

18:                                               ; preds = %15, %1
  %19 = load ptr, ptr %5, align 8
  call void @free(ptr noundef %19) #7
  %20 = load ptr, ptr %4, align 8
  call void @free(ptr noundef %20) #7
  %21 = load ptr, ptr %3, align 8
  %22 = getelementptr inbounds %struct.archive_read_filter, ptr %21, i32 0, i32 3
  %23 = load ptr, ptr %22, align 8
  %24 = getelementptr inbounds %struct.archive_read, ptr %23, i32 0, i32 0
  %25 = load ptr, ptr %3, align 8
  %26 = getelementptr inbounds %struct.archive_read_filter, ptr %25, i32 0, i32 6
  %27 = load ptr, ptr %26, align 8
  call void (ptr, i32, ptr, ...) @archive_set_error(ptr noundef %24, i32 noundef 12, ptr noundef @.str.1, ptr noundef %27)
  store i32 -30, ptr %2, align 4
  br label %118

28:                                               ; preds = %15
  %29 = load ptr, ptr %4, align 8
  %30 = load ptr, ptr %3, align 8
  %31 = getelementptr inbounds %struct.archive_read_filter, ptr %30, i32 0, i32 5
  store ptr %29, ptr %31, align 8
  %32 = load ptr, ptr %4, align 8
  %33 = getelementptr inbounds %struct.private_data, ptr %32, i32 0, i32 6
  store i64 65536, ptr %33, align 8
  %34 = load ptr, ptr %5, align 8
  %35 = load ptr, ptr %4, align 8
  %36 = getelementptr inbounds %struct.private_data, ptr %35, i32 0, i32 7
  store ptr %34, ptr %36, align 8
  %37 = load ptr, ptr %3, align 8
  %38 = getelementptr inbounds %struct.archive_read_filter, ptr %37, i32 0, i32 4
  store ptr @compress_reader_vtable, ptr %38, align 8
  %39 = load ptr, ptr %3, align 8
  %40 = call i32 @getbits(ptr noundef %39, i32 noundef 8)
  %41 = load ptr, ptr %3, align 8
  %42 = call i32 @getbits(ptr noundef %41, i32 noundef 8)
  %43 = load ptr, ptr %3, align 8
  %44 = call i32 @getbits(ptr noundef %43, i32 noundef 8)
  store i32 %44, ptr %6, align 4
  %45 = load i32, ptr %6, align 4
  %46 = and i32 %45, 31
  %47 = icmp sgt i32 %46, 16
  br i1 %47, label %48, label %53

48:                                               ; preds = %28
  %49 = load ptr, ptr %3, align 8
  %50 = getelementptr inbounds %struct.archive_read_filter, ptr %49, i32 0, i32 3
  %51 = load ptr, ptr %50, align 8
  %52 = getelementptr inbounds %struct.archive_read, ptr %51, i32 0, i32 0
  call void (ptr, i32, ptr, ...) @archive_set_error(ptr noundef %52, i32 noundef -1, ptr noundef @.str.2)
  store i32 -30, ptr %2, align 4
  br label %118

53:                                               ; preds = %28
  %54 = load i32, ptr %6, align 4
  %55 = and i32 %54, 31
  %56 = load ptr, ptr %4, align 8
  %57 = getelementptr inbounds %struct.private_data, ptr %56, i32 0, i32 11
  store i32 %55, ptr %57, align 4
  %58 = load ptr, ptr %4, align 8
  %59 = getelementptr inbounds %struct.private_data, ptr %58, i32 0, i32 11
  %60 = load i32, ptr %59, align 4
  %61 = shl i32 1, %60
  %62 = load ptr, ptr %4, align 8
  %63 = getelementptr inbounds %struct.private_data, ptr %62, i32 0, i32 10
  store i32 %61, ptr %63, align 8
  %64 = load i32, ptr %6, align 4
  %65 = and i32 %64, 128
  %66 = load ptr, ptr %4, align 8
  %67 = getelementptr inbounds %struct.private_data, ptr %66, i32 0, i32 8
  store i32 %65, ptr %67, align 8
  %68 = load ptr, ptr %4, align 8
  %69 = getelementptr inbounds %struct.private_data, ptr %68, i32 0, i32 16
  store i32 256, ptr %69, align 8
  %70 = load ptr, ptr %4, align 8
  %71 = getelementptr inbounds %struct.private_data, ptr %70, i32 0, i32 20
  %72 = getelementptr inbounds [65300 x i8], ptr %71, i64 0, i64 0
  %73 = load ptr, ptr %4, align 8
  %74 = getelementptr inbounds %struct.private_data, ptr %73, i32 0, i32 19
  store ptr %72, ptr %74, align 8
  %75 = load ptr, ptr %4, align 8
  %76 = getelementptr inbounds %struct.private_data, ptr %75, i32 0, i32 8
  %77 = load i32, ptr %76, align 8
  %78 = icmp ne i32 %77, 0
  br i1 %78, label %79, label %84

79:                                               ; preds = %53
  %80 = load ptr, ptr %4, align 8
  %81 = getelementptr inbounds %struct.private_data, ptr %80, i32 0, i32 16
  %82 = load i32, ptr %81, align 8
  %83 = add nsw i32 %82, 1
  store i32 %83, ptr %81, align 8
  br label %84

84:                                               ; preds = %79, %53
  %85 = load ptr, ptr %4, align 8
  %86 = getelementptr inbounds %struct.private_data, ptr %85, i32 0, i32 13
  store i32 9, ptr %86, align 4
  %87 = load ptr, ptr %4, align 8
  %88 = getelementptr inbounds %struct.private_data, ptr %87, i32 0, i32 13
  %89 = load i32, ptr %88, align 4
  %90 = shl i32 1, %89
  %91 = sub nsw i32 %90, 1
  %92 = load ptr, ptr %4, align 8
  %93 = getelementptr inbounds %struct.private_data, ptr %92, i32 0, i32 12
  store i32 %91, ptr %93, align 8
  %94 = load ptr, ptr %4, align 8
  %95 = getelementptr inbounds %struct.private_data, ptr %94, i32 0, i32 14
  store i32 -1, ptr %95, align 8
  store i32 255, ptr %6, align 4
  br label %96

96:                                               ; preds = %112, %84
  %97 = load i32, ptr %6, align 4
  %98 = icmp sge i32 %97, 0
  br i1 %98, label %99, label %115

99:                                               ; preds = %96
  %100 = load ptr, ptr %4, align 8
  %101 = getelementptr inbounds %struct.private_data, ptr %100, i32 0, i32 18
  %102 = load i32, ptr %6, align 4
  %103 = sext i32 %102 to i64
  %104 = getelementptr inbounds [65536 x i16], ptr %101, i64 0, i64 %103
  store i16 0, ptr %104, align 2
  %105 = load i32, ptr %6, align 4
  %106 = trunc i32 %105 to i8
  %107 = load ptr, ptr %4, align 8
  %108 = getelementptr inbounds %struct.private_data, ptr %107, i32 0, i32 17
  %109 = load i32, ptr %6, align 4
  %110 = sext i32 %109 to i64
  %111 = getelementptr inbounds [65536 x i8], ptr %108, i64 0, i64 %110
  store i8 %106, ptr %111, align 1
  br label %112

112:                                              ; preds = %99
  %113 = load i32, ptr %6, align 4
  %114 = add nsw i32 %113, -1
  store i32 %114, ptr %6, align 4
  br label %96, !llvm.loop !5

115:                                              ; preds = %96
  %116 = load ptr, ptr %3, align 8
  %117 = call i32 @next_code(ptr noundef %116)
  store i32 0, ptr %2, align 4
  br label %118

118:                                              ; preds = %115, %48, %18
  %119 = load i32, ptr %2, align 4
  ret i32 %119
}