; Function Attrs: nounwind uwtable
define internal range(i32 -30, 1) i32 @compress_bidder_init(ptr noundef captures(none) initializes((48, 60)) %0) #0 {
  %2 = getelementptr inbounds nuw i8, ptr %0, i64 56
  store i32 3, ptr %2, align 8
  %3 = getelementptr inbounds nuw i8, ptr %0, i64 48
  store ptr @.str, ptr %3, align 8
  %4 = tail call noalias dereferenceable_or_null(262016) ptr @calloc(i64 noundef 262016, i64 noundef 1) #7
  %5 = tail call noalias dereferenceable_or_null(65536) ptr @malloc(i64 noundef 65536) #8
  %6 = icmp eq ptr %4, null
  %7 = icmp eq ptr %5, null
  %or.cond = or i1 %6, %7
  br i1 %or.cond, label %8, label %11

8:                                                ; preds = %1
  tail call void @free(ptr noundef %5) #6
  tail call void @free(ptr noundef %4) #6
  %9 = getelementptr inbounds nuw i8, ptr %0, i64 24
  %10 = load ptr, ptr %9, align 8
  tail call void (ptr, i32, ptr, ...) @archive_set_error(ptr noundef %10, i32 noundef 12, ptr noundef nonnull @.str.1, ptr noundef nonnull @.str) #6
  br label %46

11:                                               ; preds = %1
  %12 = getelementptr inbounds nuw i8, ptr %0, i64 40
  store ptr %4, ptr %12, align 8
  %13 = getelementptr inbounds nuw i8, ptr %4, i64 40
  store i64 65536, ptr %13, align 8
  %14 = getelementptr inbounds nuw i8, ptr %4, i64 48
  store ptr %5, ptr %14, align 8
  %15 = getelementptr inbounds nuw i8, ptr %0, i64 32
  store ptr @compress_reader_vtable, ptr %15, align 8
  %16 = tail call fastcc i32 @getbits(ptr noundef nonnull %0, i32 noundef 8)
  %17 = tail call fastcc i32 @getbits(ptr noundef nonnull %0, i32 noundef 8)
  %18 = tail call fastcc i32 @getbits(ptr noundef nonnull %0, i32 noundef 8)
  %19 = and i32 %18, 31
  %20 = icmp samesign ugt i32 %19, 16
  br i1 %20, label %21, label %24

21:                                               ; preds = %11
  %22 = getelementptr inbounds nuw i8, ptr %0, i64 24
  %23 = load ptr, ptr %22, align 8
  tail call void (ptr, i32, ptr, ...) @archive_set_error(ptr noundef %23, i32 noundef -1, ptr noundef nonnull @.str.2) #6
  br label %46

24:                                               ; preds = %11
  %25 = getelementptr inbounds nuw i8, ptr %4, i64 68
  store i32 %19, ptr %25, align 4
  %26 = shl nuw nsw i32 1, %19
  %27 = getelementptr inbounds nuw i8, ptr %4, i64 64
  store i32 %26, ptr %27, align 8
  %28 = and i32 %18, 128
  %29 = getelementptr inbounds nuw i8, ptr %4, i64 56
  store i32 %28, ptr %29, align 8
  %30 = getelementptr inbounds nuw i8, ptr %4, i64 88
  store i32 256, ptr %30, align 8
  %31 = getelementptr inbounds nuw i8, ptr %4, i64 196712
  %32 = getelementptr inbounds nuw i8, ptr %4, i64 196704
  store ptr %31, ptr %32, align 8
  %.not = icmp eq i32 %28, 0
  br i1 %.not, label %34, label %33

33:                                               ; preds = %24
  store i32 257, ptr %30, align 8
  br label %34

34:                                               ; preds = %33, %24
  %35 = getelementptr inbounds nuw i8, ptr %4, i64 76
  store i32 9, ptr %35, align 4
  %36 = getelementptr inbounds nuw i8, ptr %4, i64 72
  store i32 511, ptr %36, align 8
  %37 = getelementptr inbounds nuw i8, ptr %4, i64 80
  store i32 -1, ptr %37, align 8
  %38 = getelementptr inbounds nuw i8, ptr %4, i64 65628
  %39 = getelementptr inbounds nuw i8, ptr %4, i64 92
  br label %40

40:                                               ; preds = %34, %40
  %indvars.iv = phi i64 [ 255, %34 ], [ %indvars.iv.next, %40 ]
  %41 = getelementptr inbounds nuw [65536 x i16], ptr %38, i64 0, i64 %indvars.iv
  store i16 0, ptr %41, align 2
  %42 = trunc i64 %indvars.iv to i8
  %43 = getelementptr inbounds nuw [65536 x i8], ptr %39, i64 0, i64 %indvars.iv
  store i8 %42, ptr %43, align 1
  %indvars.iv.next = add nsw i64 %indvars.iv, -1
  %.not49 = icmp eq i64 %indvars.iv, 0
  br i1 %.not49, label %44, label %40, !llvm.loop !5

44:                                               ; preds = %40
  %45 = tail call fastcc i32 @next_code(ptr noundef nonnull %0)
  br label %46

46:                                               ; preds = %44, %21, %8
  %.043 = phi i32 [ -30, %8 ], [ -30, %21 ], [ 0, %44 ]
  ret i32 %.043
}